; ModuleID = 'source-C-CXX/2/2216.c'
source_filename = "source-C-CXX/2/2216.c"
target datalayout = "e-m:e-p270:32:32-p271:32:32-p272:64:64-i64:64-f80:128-n8:16:32:64-S128"
target triple = "x86_64-pc-linux-gnu"

@.str = private unnamed_addr constant [5 x i8] c"%d%d\00", align 1
@.str.1 = private unnamed_addr constant [3 x i8] c"%d\00", align 1
@.str.2 = private unnamed_addr constant [4 x i8] c"yes\00", align 1
@.str.3 = private unnamed_addr constant [3 x i8] c"no\00", align 1

; Function Attrs: nofree nounwind sspstrong uwtable
define dso_local i32 @main() local_unnamed_addr #0 {
  %1 = alloca [1000 x i32], align 16
  %2 = alloca i32, align 4
  %3 = alloca i32, align 4
  %4 = bitcast [1000 x i32]* %1 to i8*
  call void @llvm.lifetime.start.p0i8(i64 4000, i8* nonnull %4) #3
  %5 = bitcast i32* %2 to i8*
  call void @llvm.lifetime.start.p0i8(i64 4, i8* nonnull %5) #3
  %6 = bitcast i32* %3 to i8*
  call void @llvm.lifetime.start.p0i8(i64 4, i8* nonnull %6) #3
  %7 = call i32 (i8*, ...) @__isoc99_scanf(i8* getelementptr inbounds ([5 x i8], [5 x i8]* @.str, i64 0, i64 0), i32* nonnull %2, i32* nonnull %3)
  %8 = load i32, i32* %2, align 4, !tbaa !5
  %9 = icmp sgt i32 %8, 0
  br i1 %9, label %13, label %10

10:                                               ; preds = %13, %0
  %11 = phi i32 [ %8, %0 ], [ %18, %13 ]
  %12 = icmp sgt i32 %11, 1
  br i1 %12, label %21, label %71

13:                                               ; preds = %0, %13
  %14 = phi i64 [ %17, %13 ], [ 0, %0 ]
  %15 = getelementptr inbounds [1000 x i32], [1000 x i32]* %1, i64 0, i64 %14
  %16 = call i32 (i8*, ...) @__isoc99_scanf(i8* getelementptr inbounds ([3 x i8], [3 x i8]* @.str.1, i64 0, i64 0), i32* nonnull %15)
  %17 = add nuw nsw i64 %14, 1
  %18 = load i32, i32* %2, align 4, !tbaa !5
  %19 = sext i32 %18 to i64
  %20 = icmp slt i64 %17, %19
  br i1 %20, label %13, label %10, !llvm.loop !9

21:                                               ; preds = %10, %65
  %22 = phi i64 [ %66, %65 ], [ 1, %10 ]
  %23 = phi i64 [ %25, %65 ], [ 0, %10 ]
  %24 = phi i32 [ %67, %65 ], [ %11, %10 ]
  %25 = add nuw nsw i64 %23, 1
  %26 = getelementptr inbounds [1000 x i32], [1000 x i32]* %1, i64 0, i64 %23
  %27 = trunc i64 %25 to i32
  %28 = icmp sgt i32 %24, %27
  br i1 %28, label %29, label %56

29:                                               ; preds = %21, %51
  %30 = phi i32 [ %52, %51 ], [ %24, %21 ]
  %31 = phi i64 [ %53, %51 ], [ %22, %21 ]
  %32 = load i32, i32* %26, align 4, !tbaa !5
  %33 = getelementptr inbounds [1000 x i32], [1000 x i32]* %1, i64 0, i64 %31
  %34 = load i32, i32* %33, align 4, !tbaa !5
  %35 = add nsw i32 %34, %32
  %36 = load i32, i32* %3, align 4, !tbaa !5
  %37 = icmp eq i32 %35, %36
  br i1 %37, label %38, label %40

38:                                               ; preds = %29
  %39 = call i32 (i8*, ...) @printf(i8* nonnull dereferenceable(1) getelementptr inbounds ([4 x i8], [4 x i8]* @.str.2, i64 0, i64 0))
  br label %56

40:                                               ; preds = %29
  %41 = add nsw i32 %30, -2
  %42 = zext i32 %41 to i64
  %43 = icmp eq i64 %23, %42
  %44 = add nsw i32 %30, -1
  %45 = zext i32 %44 to i64
  %46 = icmp eq i64 %31, %45
  %47 = select i1 %43, i1 %46, i1 false
  br i1 %47, label %48, label %51

48:                                               ; preds = %40
  %49 = call i32 (i8*, ...) @printf(i8* nonnull dereferenceable(1) getelementptr inbounds ([3 x i8], [3 x i8]* @.str.3, i64 0, i64 0))
  %50 = load i32, i32* %2, align 4, !tbaa !5
  br label %51

51:                                               ; preds = %40, %48
  %52 = phi i32 [ %30, %40 ], [ %50, %48 ]
  %53 = add nuw nsw i64 %31, 1
  %54 = trunc i64 %53 to i32
  %55 = icmp sgt i32 %52, %54
  br i1 %55, label %29, label %56, !llvm.loop !11

56:                                               ; preds = %51, %21, %38
  %57 = phi i64 [ %31, %38 ], [ %25, %21 ], [ %53, %51 ]
  %58 = load i32, i32* %26, align 4, !tbaa !5
  %59 = and i64 %57, 4294967295
  %60 = getelementptr inbounds [1000 x i32], [1000 x i32]* %1, i64 0, i64 %59
  %61 = load i32, i32* %60, align 4, !tbaa !5
  %62 = add nsw i32 %61, %58
  %63 = load i32, i32* %3, align 4, !tbaa !5
  %64 = icmp eq i32 %62, %63
  br i1 %64, label %71, label %65, !llvm.loop !12

65:                                               ; preds = %56
  %66 = add nuw nsw i64 %22, 1
  %67 = load i32, i32* %2, align 4, !tbaa !5
  %68 = add nsw i32 %67, -1
  %69 = sext i32 %68 to i64
  %70 = icmp slt i64 %25, %69
  br i1 %70, label %21, label %71

71:                                               ; preds = %65, %56, %10
  call void @llvm.lifetime.end.p0i8(i64 4, i8* nonnull %6) #3
  call void @llvm.lifetime.end.p0i8(i64 4, i8* nonnull %5) #3
  call void @llvm.lifetime.end.p0i8(i64 4000, i8* nonnull %4) #3
  ret i32 0
}

; Function Attrs: argmemonly mustprogress nofree nosync nounwind willreturn
declare void @llvm.lifetime.start.p0i8(i64 immarg, i8* nocapture) #1

; Function Attrs: nofree nounwind
declare noundef i32 @__isoc99_scanf(i8* nocapture noundef readonly, ...) local_unnamed_addr #2

; Function Attrs: nofree nounwind
declare noundef i32 @printf(i8* nocapture noundef readonly, ...) local_unnamed_addr #2

; Function Attrs: argmemonly mustprogress nofree nosync nounwind willreturn
declare void @llvm.lifetime.end.p0i8(i64 immarg, i8* nocapture) #1


!llvm.module.flags = !{!0, !1, !2, !3}
!llvm.ident = !{!4}

!0 = !{i32 1, !"wchar_size", i32 4}
!1 = !{i32 7, !"PIC Level", i32 2}
!2 = !{i32 7, !"PIE Level", i32 2}
!3 = !{i32 7, !"uwtable", i32 1}
!4 = !{!"clang version 13.0.0"}
!5 = !{!6, !6, i64 0}
!6 = !{!"int", !7, i64 0}
!7 = !{!"omnipotent char", !8, i64 0}
!8 = !{!"Simple C/C++ TBAA"}
!9 = distinct !{!9, !10}
!10 = !{!"llvm.loop.mustprogress"}
!11 = distinct !{!11, !10}
!12 = distinct !{!12, !10}
